; Function Attrs: mustprogress nofree norecurse nounwind willreturn memory(argmem: readwrite) uwtable
define hidden void @hb_blob_make_immutable(ptr nocapture noundef %0) local_unnamed_addr #2 {
  %2 = getelementptr inbounds i8, ptr %0, i64 4
  %3 = load atomic i32, ptr %2 monotonic, align 4
  %.not.i = icmp eq i32 %3, 0
  br i1 %.not.i, label %5, label %4

4:                                                ; preds = %1
  store atomic i32 0, ptr %2 monotonic, align 4
  br label %5

5:                                                ; preds = %1, %4
  ret void
}